target datalayout = "e-m:e-p270:32:32-p271:32:32-p272:64:64-i64:64-i128:128-f80:128-n8:16:32:64-S128"
target triple = "x86_64-pc-linux-gnu"

%class.DispatchTable = type { [10 x [256 x ptr]] }
%class.EntryPoint = type { [10 x ptr] }

@_ZN10EntryPointC1EPhS0_S0_S0_S0_S0_S0_S0_S0_S0_ = hidden unnamed_addr alias void (ptr, ptr, ptr, ptr, ptr, ptr, ptr, ptr, ptr, ptr, ptr), ptr @_ZN10EntryPointC2EPhS0_S0_S0_S0_S0_S0_S0_S0_S0_

; Function Attrs: mustprogress nounwind uwtable
define hidden void @_ZNK13DispatchTable5entryEi(ptr dead_on_unwind noalias writable sret(%class.EntryPoint) align 8 %0, ptr noundef nonnull align 8 dereferenceable(20480) %1, i32 noundef %2) #1 align 2 {
  %4 = alloca ptr, align 8
  %5 = alloca i32, align 4
  store ptr %1, ptr %4, align 8
  store i32 %2, ptr %5, align 4
  %6 = load ptr, ptr %4, align 8
  %7 = getelementptr inbounds %class.DispatchTable, ptr %6, i32 0, i32 0
  %8 = getelementptr inbounds [10 x [256 x ptr]], ptr %7, i64 0, i64 0
  %9 = load i32, ptr %5, align 4
  %10 = sext i32 %9 to i64
  %11 = getelementptr inbounds [256 x ptr], ptr %8, i64 0, i64 %10
  %12 = load ptr, ptr %11, align 8
  %13 = getelementptr inbounds %class.DispatchTable, ptr %6, i32 0, i32 0
  %14 = getelementptr inbounds [10 x [256 x ptr]], ptr %13, i64 0, i64 1
  %15 = load i32, ptr %5, align 4
  %16 = sext i32 %15 to i64
  %17 = getelementptr inbounds [256 x ptr], ptr %14, i64 0, i64 %16
  %18 = load ptr, ptr %17, align 8
  %19 = getelementptr inbounds %class.DispatchTable, ptr %6, i32 0, i32 0
  %20 = getelementptr inbounds [10 x [256 x ptr]], ptr %19, i64 0, i64 2
  %21 = load i32, ptr %5, align 4
  %22 = sext i32 %21 to i64
  %23 = getelementptr inbounds [256 x ptr], ptr %20, i64 0, i64 %22
  %24 = load ptr, ptr %23, align 8
  %25 = getelementptr inbounds %class.DispatchTable, ptr %6, i32 0, i32 0
  %26 = getelementptr inbounds [10 x [256 x ptr]], ptr %25, i64 0, i64 3
  %27 = load i32, ptr %5, align 4
  %28 = sext i32 %27 to i64
  %29 = getelementptr inbounds [256 x ptr], ptr %26, i64 0, i64 %28
  %30 = load ptr, ptr %29, align 8
  %31 = getelementptr inbounds %class.DispatchTable, ptr %6, i32 0, i32 0
  %32 = getelementptr inbounds [10 x [256 x ptr]], ptr %31, i64 0, i64 8
  %33 = load i32, ptr %5, align 4
  %34 = sext i32 %33 to i64
  %35 = getelementptr inbounds [256 x ptr], ptr %32, i64 0, i64 %34
  %36 = load ptr, ptr %35, align 8
  %37 = getelementptr inbounds %class.DispatchTable, ptr %6, i32 0, i32 0
  %38 = getelementptr inbounds [10 x [256 x ptr]], ptr %37, i64 0, i64 4
  %39 = load i32, ptr %5, align 4
  %40 = sext i32 %39 to i64
  %41 = getelementptr inbounds [256 x ptr], ptr %38, i64 0, i64 %40
  %42 = load ptr, ptr %41, align 8
  %43 = getelementptr inbounds %class.DispatchTable, ptr %6, i32 0, i32 0
  %44 = getelementptr inbounds [10 x [256 x ptr]], ptr %43, i64 0, i64 5
  %45 = load i32, ptr %5, align 4
  %46 = sext i32 %45 to i64
  %47 = getelementptr inbounds [256 x ptr], ptr %44, i64 0, i64 %46
  %48 = load ptr, ptr %47, align 8
  %49 = getelementptr inbounds %class.DispatchTable, ptr %6, i32 0, i32 0
  %50 = getelementptr inbounds [10 x [256 x ptr]], ptr %49, i64 0, i64 6
  %51 = load i32, ptr %5, align 4
  %52 = sext i32 %51 to i64
  %53 = getelementptr inbounds [256 x ptr], ptr %50, i64 0, i64 %52
  %54 = load ptr, ptr %53, align 8
  %55 = getelementptr inbounds %class.DispatchTable, ptr %6, i32 0, i32 0
  %56 = getelementptr inbounds [10 x [256 x ptr]], ptr %55, i64 0, i64 7
  %57 = load i32, ptr %5, align 4
  %58 = sext i32 %57 to i64
  %59 = getelementptr inbounds [256 x ptr], ptr %56, i64 0, i64 %58
  %60 = load ptr, ptr %59, align 8
  %61 = getelementptr inbounds %class.DispatchTable, ptr %6, i32 0, i32 0
  %62 = getelementptr inbounds [10 x [256 x ptr]], ptr %61, i64 0, i64 9
  %63 = load i32, ptr %5, align 4
  %64 = sext i32 %63 to i64
  %65 = getelementptr inbounds [256 x ptr], ptr %62, i64 0, i64 %64
  %66 = load ptr, ptr %65, align 8
  call void @_ZN10EntryPointC1EPhS0_S0_S0_S0_S0_S0_S0_S0_S0_(ptr noundef nonnull align 8 dereferenceable(80) %0, ptr noundef %12, ptr noundef %18, ptr noundef %24, ptr noundef %30, ptr noundef %36, ptr noundef %42, ptr noundef %48, ptr noundef %54, ptr noundef %60, ptr noundef %66)
  ret void
}