; Function Attrs: mustprogress nofree norecurse nosync nounwind willreturn memory(argmem: readwrite) uwtable
define hidden void @_ZNK13DispatchTable5entryEi(ptr dead_on_unwind noalias nocapture writable writeonly sret(%class.EntryPoint) align 8 %0, ptr nocapture noundef nonnull readonly align 8 dereferenceable(20480) %1, i32 noundef %2) local_unnamed_addr #6 align 2 {
  %4 = sext i32 %2 to i64
  %5 = getelementptr inbounds [256 x ptr], ptr %1, i64 0, i64 %4
  %6 = load ptr, ptr %5, align 8
  %7 = getelementptr inbounds i8, ptr %1, i64 2048
  %8 = getelementptr inbounds [256 x ptr], ptr %7, i64 0, i64 %4
  %9 = load ptr, ptr %8, align 8
  %10 = getelementptr inbounds i8, ptr %1, i64 4096
  %11 = getelementptr inbounds [256 x ptr], ptr %10, i64 0, i64 %4
  %12 = load ptr, ptr %11, align 8
  %13 = getelementptr inbounds i8, ptr %1, i64 6144
  %14 = getelementptr inbounds [256 x ptr], ptr %13, i64 0, i64 %4
  %15 = load ptr, ptr %14, align 8
  %16 = getelementptr inbounds i8, ptr %1, i64 16384
  %17 = getelementptr inbounds [256 x ptr], ptr %16, i64 0, i64 %4
  %18 = load ptr, ptr %17, align 8
  %19 = getelementptr inbounds i8, ptr %1, i64 8192
  %20 = getelementptr inbounds [256 x ptr], ptr %19, i64 0, i64 %4
  %21 = load ptr, ptr %20, align 8
  %22 = getelementptr inbounds i8, ptr %1, i64 10240
  %23 = getelementptr inbounds [256 x ptr], ptr %22, i64 0, i64 %4
  %24 = load ptr, ptr %23, align 8
  %25 = getelementptr inbounds i8, ptr %1, i64 12288
  %26 = getelementptr inbounds [256 x ptr], ptr %25, i64 0, i64 %4
  %27 = load ptr, ptr %26, align 8
  %28 = getelementptr inbounds i8, ptr %1, i64 14336
  %29 = getelementptr inbounds [256 x ptr], ptr %28, i64 0, i64 %4
  %30 = load ptr, ptr %29, align 8
  %31 = getelementptr inbounds i8, ptr %1, i64 18432
  %32 = getelementptr inbounds [256 x ptr], ptr %31, i64 0, i64 %4
  %33 = load ptr, ptr %32, align 8
  store ptr %6, ptr %0, align 8
  %34 = getelementptr inbounds i8, ptr %0, i64 8
  store ptr %9, ptr %34, align 8
  %35 = getelementptr inbounds i8, ptr %0, i64 16
  store ptr %12, ptr %35, align 8
  %36 = getelementptr inbounds i8, ptr %0, i64 24
  store ptr %15, ptr %36, align 8
  %37 = getelementptr inbounds i8, ptr %0, i64 64
  store ptr %18, ptr %37, align 8
  %38 = getelementptr inbounds i8, ptr %0, i64 32
  store ptr %21, ptr %38, align 8
  %39 = getelementptr inbounds i8, ptr %0, i64 40
  store ptr %24, ptr %39, align 8
  %40 = getelementptr inbounds i8, ptr %0, i64 48
  store ptr %27, ptr %40, align 8
  %41 = getelementptr inbounds i8, ptr %0, i64 56
  store ptr %30, ptr %41, align 8
  %42 = getelementptr inbounds i8, ptr %0, i64 72
  store ptr %33, ptr %42, align 8
  ret void
}